; Function Attrs: uwtable
define void @_ZThn16_N3gmx30AnalysisDataFrameAverageModule12frameStartedERKNS_23AnalysisDataFrameHeaderE(ptr noundef %0, ptr noundef nonnull align 4 dereferenceable(12) %1) unnamed_addr #5 align 2 {
  %3 = getelementptr inbounds i8, ptr %0, i64 -16
  %4 = getelementptr inbounds i8, ptr %0, i64 8
  %5 = load ptr, ptr %4, align 8
  %6 = tail call noundef nonnull align 8 dereferenceable(45) ptr @_ZN3gmx19AnalysisDataStorage10startFrameERKNS_23AnalysisDataFrameHeaderE(ptr noundef nonnull align 8 dereferenceable(8) %5, ptr noundef nonnull align 4 dereferenceable(12) %1)
  %7 = tail call noundef i32 @_ZNK3gmx20AbstractAnalysisData11columnCountEv(ptr noundef nonnull align 8 dereferenceable(16) %3)
  %8 = icmp sgt i32 %7, 0
  br i1 %8, label %.lr.ph.i, label %_ZN3gmx30AnalysisDataFrameAverageModule12frameStartedERKNS_23AnalysisDataFrameHeaderE.exit

.lr.ph.i:                                         ; preds = %2
  %9 = getelementptr inbounds i8, ptr %6, i64 8
  %10 = getelementptr inbounds i8, ptr %6, i64 36
  %11 = getelementptr inbounds i8, ptr %6, i64 44
  br label %12

12:                                               ; preds = %12, %.lr.ph.i
  %indvars.iv.i = phi i64 [ 0, %.lr.ph.i ], [ %indvars.iv.next.i, %12 ]
  %13 = load ptr, ptr %4, align 8
  %14 = getelementptr inbounds i8, ptr %13, i64 8
  %15 = load ptr, ptr %14, align 8
  %16 = getelementptr inbounds i32, ptr %15, i64 %indvars.iv.i
  store i32 0, ptr %16, align 4
  %17 = load i32, ptr %10, align 4
  %18 = trunc nuw nsw i64 %indvars.iv.i to i32
  %19 = add nsw i32 %17, %18
  %20 = sext i32 %19 to i64
  %21 = load ptr, ptr %9, align 8
  %22 = getelementptr inbounds %"class.gmx::AnalysisDataValue", ptr %21, i64 %20
  store float 0.000000e+00, ptr %22, align 8
  %23 = getelementptr inbounds i8, ptr %22, i64 8
  %24 = load i64, ptr %23, align 8
  %25 = or i64 %24, 5
  store i64 %25, ptr %23, align 8
  store i8 1, ptr %11, align 4
  %indvars.iv.next.i = add nuw nsw i64 %indvars.iv.i, 1
  %26 = tail call noundef i32 @_ZNK3gmx20AbstractAnalysisData11columnCountEv(ptr noundef nonnull align 8 dereferenceable(16) %3)
  %27 = sext i32 %26 to i64
  %28 = icmp slt i64 %indvars.iv.next.i, %27
  br i1 %28, label %12, label %_ZN3gmx30AnalysisDataFrameAverageModule12frameStartedERKNS_23AnalysisDataFrameHeaderE.exit, !llvm.loop !12

_ZN3gmx30AnalysisDataFrameAverageModule12frameStartedERKNS_23AnalysisDataFrameHeaderE.exit: ; preds = %12, %2
  ret void
}